; ModuleID = 'bench/linux/original/hid-generic.ll'
source_filename = "bench/linux/original/hid-generic.ll"
target datalayout = "e-m:e-p270:32:32-p271:32:32-p272:64:64-i64:64-i128:128-f80:128-n8:16:32:64-S128"
target triple = "x86_64-unknown-linux-gnu"

module asm ".section\09\22.initcall6.init\22, \22a\22\09\09"
module asm "__initcall__kmod_hid_generic__420_82_hid_generic_init6:\09\09\09"
module asm ".long\09hid_generic_init - .\09"
module asm ".previous\09\09\09\09\09"

%struct.hid_driver = type { ptr, ptr, %struct.list_head, %struct.spinlock, ptr, ptr, ptr, ptr, ptr, ptr, ptr, ptr, ptr, ptr, ptr, ptr, ptr, ptr, ptr, ptr, %struct.device_driver }
%struct.list_head = type { ptr, ptr }
%struct.spinlock = type { %union.anon }
%union.anon = type { %struct.raw_spinlock }
%struct.raw_spinlock = type { %struct.qspinlock }
%struct.qspinlock = type { %union.anon.0 }
%union.anon.0 = type { %struct.atomic_t }
%struct.atomic_t = type { i32 }
%struct.device_driver = type { ptr, ptr, ptr, ptr, i8, i32, ptr, ptr, ptr, ptr, ptr, ptr, ptr, ptr, ptr, ptr, ptr, ptr, ptr }
%struct.hid_device_id = type { i16, i16, i32, i32, i64 }
%struct.bus_type = type { ptr, ptr, ptr, ptr, ptr, ptr, ptr, ptr, ptr, ptr, ptr, ptr, ptr, ptr, ptr, ptr, ptr, ptr, ptr, i8 }

@__UNIQUE_ID___addressable_hid_generic_init421 = internal global ptr @hid_generic_init, section ".discard.addressable", align 8
@hid_generic = internal global %struct.hid_driver { ptr @.str.1, ptr @hid_table, %struct.list_head zeroinitializer, %struct.spinlock zeroinitializer, ptr @hid_generic_match, ptr @hid_generic_probe, ptr null, ptr null, ptr null, ptr null, ptr null, ptr null, ptr null, ptr null, ptr null, ptr null, ptr null, ptr null, ptr null, ptr null, %struct.device_driver zeroinitializer }, align 8
@__exitcall_hid_generic_exit = internal global ptr @hid_generic_exit, section ".exitcall.exit", align 8
@__UNIQUE_ID_author422 = internal constant [34 x i8] c"hid_generic.author=Henrik Rydberg\00", section ".modinfo", align 1
@__UNIQUE_ID_description423 = internal constant [43 x i8] c"hid_generic.description=HID generic driver\00", section ".modinfo", align 1
@__UNIQUE_ID_file424 = internal constant [41 x i8] c"hid_generic.file=drivers/hid/hid-generic\00", section ".modinfo", align 1
@__UNIQUE_ID_license425 = internal constant [24 x i8] c"hid_generic.license=GPL\00", section ".modinfo", align 1
@.str = private unnamed_addr constant [12 x i8] c"hid_generic\00", align 1
@.str.1 = private unnamed_addr constant [12 x i8] c"hid-generic\00", align 1
@hid_table = internal constant [2 x %struct.hid_device_id] [%struct.hid_device_id { i16 -1, i16 0, i32 -1, i32 -1, i64 0 }, %struct.hid_device_id zeroinitializer], align 16
@hid_bus_type = external dso_local constant %struct.bus_type, align 8
@llvm.compiler.used = appending global [7 x ptr] [ptr @__UNIQUE_ID___addressable_hid_generic_init421, ptr @__UNIQUE_ID_author422, ptr @__UNIQUE_ID_description423, ptr @__UNIQUE_ID_file424, ptr @__UNIQUE_ID_license425, ptr @__exitcall_hid_generic_exit, ptr @hid_generic_exit], section "llvm.metadata"

; Function Attrs: cold fn_ret_thunk_extern nounwind null_pointer_is_valid optsize
define internal i32 @hid_generic_init() #0 section ".init.text" align 16 {
  %1 = tail call i32 @__hid_register_driver(ptr noundef nonnull @hid_generic, ptr noundef null, ptr noundef nonnull @.str) #3
  ret i32 %1
}

; Function Attrs: cold fn_ret_thunk_extern nounwind null_pointer_is_valid optsize
define internal void @hid_generic_exit() #0 section ".exit.text" align 16 {
  tail call void @hid_unregister_driver(ptr noundef nonnull @hid_generic) #3
  ret void
}

; Function Attrs: null_pointer_is_valid
declare dso_local void @hid_unregister_driver(ptr noundef) local_unnamed_addr #1

; Function Attrs: null_pointer_is_valid
declare dso_local i32 @__hid_register_driver(ptr noundef, ptr noundef, ptr noundef) local_unnamed_addr #1

; Function Attrs: fn_ret_thunk_extern nounwind null_pointer_is_valid
define internal zeroext i1 @hid_generic_match(ptr noundef %0, i1 noundef zeroext %1) #2 align 16 {
  br i1 %1, label %11, label %3

3:                                                ; preds = %2
  %4 = getelementptr inbounds i8, ptr %0, i64 7156
  %5 = load i32, ptr %4, align 4
  %6 = and i32 %5, 524288
  %7 = icmp eq i32 %6, 0
  br i1 %7, label %8, label %11

8:                                                ; preds = %3
  %9 = tail call i32 @bus_for_each_drv(ptr noundef nonnull @hid_bus_type, ptr noundef null, ptr noundef %0, ptr noundef nonnull @__check_hid_generic) #3
  %10 = icmp eq i32 %9, 0
  br label %11

11:                                               ; preds = %8, %3, %2
  %12 = phi i1 [ true, %2 ], [ false, %3 ], [ %10, %8 ]
  ret i1 %12
}

; Function Attrs: fn_ret_thunk_extern nounwind null_pointer_is_valid
define internal i32 @hid_generic_probe(ptr noundef %0, ptr nocapture readnone %1) #2 align 16 {
  %3 = getelementptr inbounds i8, ptr %0, i64 7156
  %4 = load i32, ptr %3, align 4
  %5 = or i32 %4, 2048
  store i32 %5, ptr %3, align 4
  %6 = tail call i32 @hid_open_report(ptr noundef %0) #3
  %7 = icmp eq i32 %6, 0
  br i1 %7, label %8, label %10

8:                                                ; preds = %2
  %9 = tail call i32 @hid_hw_start(ptr noundef %0, i32 noundef 45) #3
  br label %10

10:                                               ; preds = %8, %2
  %11 = phi i32 [ %9, %8 ], [ %6, %2 ]
  ret i32 %11
}

; Function Attrs: null_pointer_is_valid
declare dso_local i32 @bus_for_each_drv(ptr noundef, ptr noundef, ptr noundef, ptr noundef) local_unnamed_addr #1

; Function Attrs: fn_ret_thunk_extern nounwind null_pointer_is_valid
define internal i32 @__check_hid_generic(ptr noundef %0, ptr noundef %1) #2 align 16 {
  %3 = getelementptr i8, ptr %0, i64 -168
  %4 = icmp eq ptr %3, @hid_generic
  br i1 %4, label %9, label %5

5:                                                ; preds = %2
  %6 = tail call ptr @hid_match_device(ptr noundef %1, ptr noundef %3) #3
  %7 = icmp ne ptr %6, null
  %8 = zext i1 %7 to i32
  br label %9

9:                                                ; preds = %5, %2
  %10 = phi i32 [ %8, %5 ], [ 0, %2 ]
  ret i32 %10
}

; Function Attrs: null_pointer_is_valid
declare dso_local ptr @hid_match_device(ptr noundef, ptr noundef) local_unnamed_addr #1

; Function Attrs: null_pointer_is_valid
declare dso_local i32 @hid_hw_start(ptr noundef, i32 noundef) local_unnamed_addr #1

; Function Attrs: null_pointer_is_valid
declare dso_local i32 @hid_open_report(ptr noundef) local_unnamed_addr #1


!llvm.module.flags = !{!0, !1, !2, !3, !4}

!0 = !{i32 1, !"wchar_size", i32 2}
!1 = !{i32 8, !"cf-protection-branch", i32 1}
!2 = !{i32 4, !"function_return_thunk_extern", i32 1}
!3 = !{i32 4, !"indirect_branch_cs_prefix", i32 1}
!4 = !{i32 4, !"SkipRaxSetup", i32 1}
